(lp0
(dp1
S'domain'
p2
S'.jiankongbao.com'
p3
sS'name'
p4
S'ent_ticket'
p5
sS'value'
p6
S'09385f5071d3259063e712df1010a355'
p7
sa(dp8
g2
S'.qiye.jiankongbao.com'
p9
sg4
S'ticket'
p10
sg6
S'09385f5071d3259063e712df1010a355'
p11
sa(dp12
g2
S'qiye.jiankongbao.com'
p13
sg4
S'lang'
p14
sg6
S'1'
p15
sa(dp16
g2
S'qiye.jiankongbao.com'
p17
sg4
S'timezone'
p18
sg6
S'DEFAULT_TIME_ZONE'
p19
sa.