(dp0
S'GBIZSSID'
p1
S'8954bpg7f01abeac8d066'
p2
sS'hm_username'
p3
S'18513788638'
p4
sS'SFSSID'
p5
S'0illv0vu3ma9kq7qdg5luised4'
p6
sS'uc_login_unique'
p7
S'5b764d9a727e31c1c615291272764bf2'
p8
sS'__cas__st__'
p9
S'bbe455354d79e0664ceb0dae56dabca334aa79d875f1cc1987fc494b6267607ce58dc81122188b226e901e36'
p10
sS'SIGNIN_UC'
p11
S'70a2711cf1d3d9b1a82d2f87d633bd8a02516740655'
p12
sS'__cas__id__'
p13
S'24229627'
p14
sS'GIMGSSID'
p15
S'b7b11yt73ba8c301fd919'
p16
sS'CASSSID'
p17
S'6ecnk650d7a8m6d31p2ltu86r6'
p18
sS'appId'
p19
S'3'
p20
sS'PRISON_COOKIE'
p21
S'5981899e3ade9b4ca6f41e2de6f'
p22
sS'LOGINAID'
p23
S'12'
p24
sS'LOGINUID'
p25
S'24229627'
p26
s.